target datalayout = "e-m:e-p270:32:32-p271:32:32-p272:64:64-i64:64-i128:128-f80:128-n8:16:32:64-S128"
target triple = "x86_64-pc-linux-gnu"

%union.SourceSpan = type { i64 }
%struct.GenContext_ = type { i8, ptr, ptr, ptr, ptr, ptr, ptr, ptr, ptr, ptr, ptr, ptr, ptr, ptr, ptr, ptr, ptr, ptr, ptr, ptr, ptr, ptr, ptr, ptr, ptr, ptr, ptr, ptr, ptr, ptr, ptr, ptr, ptr, %struct.anon.85, i32, i32, %struct.DebugContext, ptr, ptr, ptr, %struct.BEValue, i8, %union.SourceSpan, ptr, ptr, ptr, ptr }
%struct.anon.85 = type { ptr, ptr, ptr }
%struct.DebugContext = type { i16, ptr, ptr, %struct.DebugFile_, ptr, ptr, ptr, ptr }
%struct.DebugFile_ = type { i16, ptr }
%struct.BEValue = type { i8, i32, ptr, ptr, ptr }
%struct.AbiType = type { %union.anon.26 }
%union.anon.26 = type { ptr }

; Function Attrs: nounwind uwtable
define internal zeroext i1 @abi_type_is_type(ptr %0) #0 {
  %2 = alloca %struct.AbiType, align 8
  %3 = getelementptr inbounds %struct.AbiType, ptr %2, i32 0, i32 0
  %4 = getelementptr inbounds %union.anon.26, ptr %3, i32 0, i32 0
  store ptr %0, ptr %4, align 8
  %5 = getelementptr inbounds %struct.AbiType, ptr %2, i32 0, i32 0
  %6 = load i64, ptr %5, align 8
  %7 = and i64 %6, 1
  %8 = icmp ne i64 %7, 0
  %9 = xor i1 %8, true
  ret i1 %9
}

; Function Attrs: nounwind uwtable
define dso_local ptr @llvm_abi_type(ptr noundef %0, ptr %1) #0 {
  %3 = alloca ptr, align 8
  %4 = alloca %struct.AbiType, align 8
  %5 = alloca ptr, align 8
  %6 = getelementptr inbounds %struct.AbiType, ptr %4, i32 0, i32 0
  %7 = getelementptr inbounds %union.anon.26, ptr %6, i32 0, i32 0
  store ptr %1, ptr %7, align 8
  store ptr %0, ptr %5, align 8
  %8 = getelementptr inbounds %struct.AbiType, ptr %4, i32 0, i32 0
  %9 = getelementptr inbounds %union.anon.26, ptr %8, i32 0, i32 0
  %10 = load ptr, ptr %9, align 8
  %11 = call zeroext i1 @abi_type_is_type(ptr %10)
  br i1 %11, label %12, label %17

12:                                               ; preds = %2
  %13 = load ptr, ptr %5, align 8
  %14 = getelementptr inbounds %struct.AbiType, ptr %4, i32 0, i32 0
  %15 = load ptr, ptr %14, align 8
  %16 = call ptr @llvm_get_type(ptr noundef %13, ptr noundef %15)
  store ptr %16, ptr %3, align 8
  br label %26

17:                                               ; preds = %2
  %18 = load ptr, ptr %5, align 8
  %19 = getelementptr inbounds %struct.GenContext_, ptr %18, i32 0, i32 5
  %20 = load ptr, ptr %19, align 8
  %21 = getelementptr inbounds %struct.AbiType, ptr %4, i32 0, i32 0
  %22 = load i64, ptr %21, align 8
  %23 = sub i64 %22, 1
  %24 = trunc i64 %23 to i32
  %25 = call ptr @LLVMIntTypeInContext(ptr noundef %20, i32 noundef %24)
  store ptr %25, ptr %3, align 8
  br label %26

26:                                               ; preds = %17, %12
  %27 = load ptr, ptr %3, align 8
  ret ptr %27
}