; Function Attrs: nounwind uwtable
define dso_local ptr @llvm_abi_type(ptr noundef %0, ptr %1) local_unnamed_addr #0 {
  %3 = ptrtoint ptr %1 to i64
  %4 = and i64 %3, 1
  %.not.i = icmp eq i64 %4, 0
  br i1 %.not.i, label %5, label %7

5:                                                ; preds = %2
  %6 = tail call ptr @llvm_get_type(ptr noundef %0, ptr noundef %1)
  br label %13

7:                                                ; preds = %2
  %8 = getelementptr inbounds i8, ptr %0, i64 40
  %9 = load ptr, ptr %8, align 8
  %10 = trunc i64 %3 to i32
  %11 = add nsw i32 %10, -1
  %12 = tail call ptr @LLVMIntTypeInContext(ptr noundef %9, i32 noundef %11) #6
  br label %13

13:                                               ; preds = %7, %5
  %.0 = phi ptr [ %6, %5 ], [ %12, %7 ]
  ret ptr %.0
}